target datalayout = "e-m:e-p270:32:32-p271:32:32-p272:64:64-i64:64-i128:128-f80:128-n8:16:32:64-S128"
target triple = "x86_64-pc-linux-gnu"

%struct.__toku_dbt = type { ptr, i64, i64, i32 }

; Function Attrs: mustprogress nounwind uwtable
define noundef i32 @_Z15toku_keycomparePKvmS0_m(ptr noundef %0, i64 noundef %1, ptr noundef %2, i64 noundef %3) #0 {
  %5 = alloca i32, align 4
  %6 = alloca ptr, align 8
  %7 = alloca i64, align 8
  %8 = alloca ptr, align 8
  %9 = alloca i64, align 8
  %10 = alloca i64, align 8
  %11 = alloca i32, align 4
  %12 = alloca i32, align 4
  store ptr %0, ptr %6, align 8, !tbaa !4
  store i64 %1, ptr %7, align 8, !tbaa !8
  store ptr %2, ptr %8, align 8, !tbaa !4
  store i64 %3, ptr %9, align 8, !tbaa !8
  call void @llvm.lifetime.start.p0(i64 8, ptr %10) #8
  %13 = load i64, ptr %7, align 8, !tbaa !8
  %14 = load i64, ptr %9, align 8, !tbaa !8
  %15 = icmp ult i64 %13, %14
  br i1 %15, label %16, label %18

16:                                               ; preds = %4
  %17 = load i64, ptr %7, align 8, !tbaa !8
  br label %20

18:                                               ; preds = %4
  %19 = load i64, ptr %9, align 8, !tbaa !8
  br label %20

20:                                               ; preds = %18, %16
  %21 = phi i64 [ %17, %16 ], [ %19, %18 ]
  store i64 %21, ptr %10, align 8, !tbaa !8
  call void @llvm.lifetime.start.p0(i64 4, ptr %11) #8
  %22 = load ptr, ptr %6, align 8, !tbaa !4
  %23 = load ptr, ptr %8, align 8, !tbaa !4
  %24 = load i64, ptr %10, align 8, !tbaa !8
  %25 = call i32 @memcmp(ptr noundef %22, ptr noundef %23, i64 noundef %24) #15
  store i32 %25, ptr %11, align 4, !tbaa !28
  %26 = load i32, ptr %11, align 4, !tbaa !28
  %27 = icmp ne i32 %26, 0
  %28 = zext i1 %27 to i64
  %29 = call i64 @llvm.expect.i64(i64 %28, i64 1)
  %30 = icmp ne i64 %29, 0
  br i1 %30, label %31, label %33

31:                                               ; preds = %20
  %32 = load i32, ptr %11, align 4, !tbaa !28
  store i32 %32, ptr %5, align 4
  store i32 1, ptr %12, align 4
  br label %44

33:                                               ; preds = %20
  %34 = load i64, ptr %7, align 8, !tbaa !8
  %35 = load i64, ptr %9, align 8, !tbaa !8
  %36 = icmp ult i64 %34, %35
  br i1 %36, label %37, label %38

37:                                               ; preds = %33
  store i32 -1, ptr %5, align 4
  store i32 1, ptr %12, align 4
  br label %44

38:                                               ; preds = %33
  %39 = load i64, ptr %7, align 8, !tbaa !8
  %40 = load i64, ptr %9, align 8, !tbaa !8
  %41 = icmp ugt i64 %39, %40
  br i1 %41, label %42, label %43

42:                                               ; preds = %38
  store i32 1, ptr %5, align 4
  store i32 1, ptr %12, align 4
  br label %44

43:                                               ; preds = %38
  store i32 0, ptr %5, align 4
  store i32 1, ptr %12, align 4
  br label %44

44:                                               ; preds = %43, %42, %37, %31
  call void @llvm.lifetime.end.p0(i64 4, ptr %11) #8
  call void @llvm.lifetime.end.p0(i64 8, ptr %10) #8
  %45 = load i32, ptr %5, align 4
  ret i32 %45
}

; Function Attrs: mustprogress nounwind uwtable
define noundef i32 @_Z24toku_builtin_compare_funPK10__toku_dbtS1_(ptr noundef %0, ptr noundef %1) #0 {
  %3 = alloca ptr, align 8
  %4 = alloca ptr, align 8
  store ptr %0, ptr %3, align 8, !tbaa !32
  store ptr %1, ptr %4, align 8, !tbaa !32
  %5 = load ptr, ptr %3, align 8, !tbaa !32
  %6 = getelementptr inbounds nuw %struct.__toku_dbt, ptr %5, i32 0, i32 0
  %7 = load ptr, ptr %6, align 8, !tbaa !34
  %8 = load ptr, ptr %3, align 8, !tbaa !32
  %9 = getelementptr inbounds nuw %struct.__toku_dbt, ptr %8, i32 0, i32 1
  %10 = load i64, ptr %9, align 8, !tbaa !36
  %11 = load ptr, ptr %4, align 8, !tbaa !32
  %12 = getelementptr inbounds nuw %struct.__toku_dbt, ptr %11, i32 0, i32 0
  %13 = load ptr, ptr %12, align 8, !tbaa !34
  %14 = load ptr, ptr %4, align 8, !tbaa !32
  %15 = getelementptr inbounds nuw %struct.__toku_dbt, ptr %14, i32 0, i32 1
  %16 = load i64, ptr %15, align 8, !tbaa !36
  %17 = call noundef i32 @_Z15toku_keycomparePKvmS0_m(ptr noundef %7, i64 noundef %10, ptr noundef %13, i64 noundef %16)
  ret i32 %17
}