; Function Attrs: mustprogress nofree nounwind willreturn memory(read, inaccessiblemem: none) uwtable
define noundef i32 @_Z24toku_builtin_compare_funPK10__toku_dbtS1_(ptr noundef readonly captures(none) %0, ptr noundef readonly captures(none) %1) local_unnamed_addr #12 {
  %3 = load ptr, ptr %0, align 8, !tbaa !22
  %4 = getelementptr inbounds nuw i8, ptr %0, i64 8
  %5 = load i64, ptr %4, align 8, !tbaa !26
  %6 = load ptr, ptr %1, align 8, !tbaa !22
  %7 = getelementptr inbounds nuw i8, ptr %1, i64 8
  %8 = load i64, ptr %7, align 8, !tbaa !26
  %9 = tail call i64 @llvm.umin.i64(i64 %5, i64 %8)
  %10 = tail call i32 @memcmp(ptr noundef readonly %3, ptr noundef readonly %6, i64 noundef %9) #18
  %.not.i = icmp eq i32 %10, 0
  br i1 %.not.i, label %11, label %_Z15toku_keycomparePKvmS0_m.exit, !prof !21

11:                                               ; preds = %2
  %12 = icmp ult i64 %5, %8
  br i1 %12, label %_Z15toku_keycomparePKvmS0_m.exit, label %13

13:                                               ; preds = %11
  %14 = icmp ugt i64 %5, %8
  %..i = zext i1 %14 to i32
  br label %_Z15toku_keycomparePKvmS0_m.exit

_Z15toku_keycomparePKvmS0_m.exit:                 ; preds = %2, %11, %13
  %.0.i = phi i32 [ %10, %2 ], [ -1, %11 ], [ %..i, %13 ]
  ret i32 %.0.i
}